; Function Attrs: mustprogress uwtable
define dso_local noundef nonnull align 8 dereferenceable(80) ptr @_ZN4Luau20SubtypingEnvironment19getMappedTypeBoundsEPKNS_4TypeE(ptr noundef nonnull align 8 dereferenceable(176) %0, ptr noundef %1) local_unnamed_addr #4 align 2 {
  %3 = alloca ptr, align 8
  %4 = ptrtoint ptr %1 to i64
  %5 = lshr i64 %4, 4
  %6 = lshr i64 %4, 9
  %7 = xor i64 %5, %6
  br label %tailrecurse

tailrecurse:                                      ; preds = %.loopexit15, %2
  %.tr = phi ptr [ %0, %2 ], [ %30, %.loopexit15 ]
  store ptr %1, ptr %3, align 8, !tbaa !96
  %8 = getelementptr inbounds nuw i8, ptr %.tr, i64 8
  %9 = getelementptr inbounds nuw i8, ptr %.tr, i64 24
  %10 = load i64, ptr %9, align 8, !tbaa !117
  %11 = icmp eq i64 %10, 0
  br i1 %11, label %.loopexit15, label %12

12:                                               ; preds = %tailrecurse
  %13 = getelementptr inbounds nuw i8, ptr %.tr, i64 32
  %14 = load ptr, ptr %13, align 8, !tbaa !96
  %15 = icmp eq ptr %1, %14
  br i1 %15, label %.loopexit15, label %16

16:                                               ; preds = %12
  %17 = getelementptr inbounds nuw i8, ptr %.tr, i64 16
  %18 = load i64, ptr %17, align 8, !tbaa !118
  %19 = add i64 %18, -1
  %20 = load ptr, ptr %8, align 8, !tbaa !119
  br label %21

21:                                               ; preds = %27, %16
  %.pn.i.i = phi i64 [ %7, %16 ], [ %29, %27 ]
  %.02028.i.i = phi i64 [ 0, %16 ], [ %28, %27 ]
  %.02129.i.i = and i64 %.pn.i.i, %19
  %22 = getelementptr inbounds nuw %"struct.std::pair.504", ptr %20, i64 %.02129.i.i
  %23 = load ptr, ptr %22, align 8, !tbaa !96
  %24 = icmp eq ptr %23, %1
  br i1 %24, label %.loopexit, label %25

25:                                               ; preds = %21
  %26 = icmp eq ptr %23, %14
  br i1 %26, label %.loopexit15, label %27

27:                                               ; preds = %25
  %28 = add i64 %.02028.i.i, 1
  %29 = add i64 %28, %.02129.i.i
  %.not.i.i = icmp ugt i64 %28, %19
  br i1 %.not.i.i, label %.loopexit15, label %21, !llvm.loop !120

.loopexit15:                                      ; preds = %27, %25, %tailrecurse, %12
  %30 = load ptr, ptr %.tr, align 8, !tbaa !99
  %.not6 = icmp eq ptr %30, null
  br i1 %.not6, label %31, label %tailrecurse

31:                                               ; preds = %.loopexit15
  %32 = call noundef nonnull align 8 dereferenceable(80) ptr @_ZN4Luau12DenseHashMapIPKNS_4TypeENS_20SubtypingEnvironment13GenericBoundsENS_16DenseHashPointerESt8equal_toIS3_EEixERKS3_(ptr noundef nonnull align 8 dereferenceable(40) %8, ptr noundef nonnull align 8 dereferenceable(8) %3)
  br label %34

.loopexit:                                        ; preds = %21
  %33 = getelementptr inbounds nuw i8, ptr %22, i64 8
  br label %34

34:                                               ; preds = %.loopexit, %31
  %.1 = phi ptr [ %32, %31 ], [ %33, %.loopexit ]
  ret ptr %.1
}